target datalayout = "e-m:e-p270:32:32-p271:32:32-p272:64:64-i64:64-i128:128-f80:128-n8:16:32:64-S128"
target triple = "x86_64-pc-linux-gnu"

%struct.crypto_ex_data_st = type { ptr }
%struct.ssl_st = type { i32, i16, i16, ptr, ptr, ptr, ptr, ptr, i32, i32, ptr, ptr, i32, i32, ptr, ptr, ptr, ptr, ptr, ptr, ptr, ptr, i32, i32, [32 x i8], ptr, ptr, ptr, ptr, ptr, ptr, ptr, i64, %struct.crypto_ex_data_st, ptr, i32, i32, i32, i32, i16, ptr, i32, i64, ptr, ptr, ptr, ptr, ptr, ptr, i32, i32, ptr, ptr, i8, i8, i32 }
%struct.ssl3_state_st = type { [8 x i8], [8 x i8], [32 x i8], [32 x i8], i8, i8, %struct.ssl3_buffer_st, %struct.ssl3_buffer_st, %struct.ssl3_record_st, i8, i32, i32, i32, i32, ptr, ptr, %struct.env_md_ctx_st, %struct.env_md_ctx_st, i8, i32, [2 x i8], i32, i8, i8, ptr, ptr, ptr, %struct.anon, [64 x i8], i8, [64 x i8], i8, i32, i32, ptr, i64, ptr, i64, i8, [64 x i8] }
%struct.ssl3_buffer_st = type { ptr, i16, i16, i16 }
%struct.ssl3_record_st = type { i8, i16, ptr }
%struct.env_md_ctx_st = type { ptr, ptr, ptr, ptr }
%struct.anon = type { [64 x i8], i32, [64 x i8], i32, i64, i32, ptr, i32, i32, %union.anon, %union.anon.0, i8, i32, ptr, ptr, i64, ptr, i8, i8, i8, i8, i32, i8, ptr, i64, i8, ptr, i8, i8, i8, %struct.ssl_ecdh_ctx_st, ptr, i16 }
%union.anon = type { i32 }
%union.anon.0 = type { i16 }
%struct.ssl_ecdh_ctx_st = type { ptr, ptr }
%struct.ssl_aead_ctx_st = type { ptr, %struct.evp_aead_ctx_st, [12 x i8], i8, i8, i8, i8, i8, i8, i8 }
%struct.evp_aead_ctx_st = type { ptr, ptr }

; Function Attrs: nounwind uwtable
define hidden i32 @SSL_get_rc4_state(ptr noundef %0, ptr noundef %1, ptr noundef %2) #0 {
  %4 = alloca i32, align 4
  %5 = alloca ptr, align 8
  %6 = alloca ptr, align 8
  %7 = alloca ptr, align 8
  store ptr %0, ptr %5, align 8, !tbaa !80
  store ptr %1, ptr %6, align 8, !tbaa !272
  store ptr %2, ptr %7, align 8, !tbaa !272
  %8 = load ptr, ptr %5, align 8, !tbaa !80
  %9 = getelementptr inbounds nuw %struct.ssl_st, ptr %8, i32 0, i32 14
  %10 = load ptr, ptr %9, align 8, !tbaa !152
  %11 = getelementptr inbounds nuw %struct.ssl3_state_st, ptr %10, i32 0, i32 24
  %12 = load ptr, ptr %11, align 8, !tbaa !274
  %13 = icmp eq ptr %12, null
  br i1 %13, label %21, label %14

14:                                               ; preds = %3
  %15 = load ptr, ptr %5, align 8, !tbaa !80
  %16 = getelementptr inbounds nuw %struct.ssl_st, ptr %15, i32 0, i32 14
  %17 = load ptr, ptr %16, align 8, !tbaa !152
  %18 = getelementptr inbounds nuw %struct.ssl3_state_st, ptr %17, i32 0, i32 25
  %19 = load ptr, ptr %18, align 8, !tbaa !252
  %20 = icmp eq ptr %19, null
  br i1 %20, label %21, label %22

21:                                               ; preds = %14, %3
  store i32 0, ptr %4, align 4
  br label %45

22:                                               ; preds = %14
  %23 = load ptr, ptr %5, align 8, !tbaa !80
  %24 = getelementptr inbounds nuw %struct.ssl_st, ptr %23, i32 0, i32 14
  %25 = load ptr, ptr %24, align 8, !tbaa !152
  %26 = getelementptr inbounds nuw %struct.ssl3_state_st, ptr %25, i32 0, i32 24
  %27 = load ptr, ptr %26, align 8, !tbaa !274
  %28 = getelementptr inbounds nuw %struct.ssl_aead_ctx_st, ptr %27, i32 0, i32 1
  %29 = load ptr, ptr %6, align 8, !tbaa !272
  %30 = call i32 @EVP_AEAD_CTX_get_rc4_state(ptr noundef %28, ptr noundef %29)
  %31 = icmp ne i32 %30, 0
  br i1 %31, label %32, label %42

32:                                               ; preds = %22
  %33 = load ptr, ptr %5, align 8, !tbaa !80
  %34 = getelementptr inbounds nuw %struct.ssl_st, ptr %33, i32 0, i32 14
  %35 = load ptr, ptr %34, align 8, !tbaa !152
  %36 = getelementptr inbounds nuw %struct.ssl3_state_st, ptr %35, i32 0, i32 25
  %37 = load ptr, ptr %36, align 8, !tbaa !252
  %38 = getelementptr inbounds nuw %struct.ssl_aead_ctx_st, ptr %37, i32 0, i32 1
  %39 = load ptr, ptr %7, align 8, !tbaa !272
  %40 = call i32 @EVP_AEAD_CTX_get_rc4_state(ptr noundef %38, ptr noundef %39)
  %41 = icmp ne i32 %40, 0
  br label %42

42:                                               ; preds = %32, %22
  %43 = phi i1 [ false, %22 ], [ %41, %32 ]
  %44 = zext i1 %43 to i32
  store i32 %44, ptr %4, align 4
  br label %45

45:                                               ; preds = %42, %21
  %46 = load i32, ptr %4, align 4
  ret i32 %46
}