; Function Attrs: nounwind uwtable
define hidden range(i32 0, 2) i32 @SSL_get_rc4_state(ptr noundef readonly captures(none) %0, ptr noundef %1, ptr noundef %2) local_unnamed_addr #0 {
  %4 = getelementptr inbounds nuw i8, ptr %0, i64 80
  %5 = load ptr, ptr %4, align 8, !tbaa !136
  %6 = getelementptr inbounds nuw i8, ptr %5, i64 264
  %7 = load ptr, ptr %6, align 8, !tbaa !242
  %8 = icmp eq ptr %7, null
  br i1 %8, label %24, label %9

9:                                                ; preds = %3
  %10 = getelementptr inbounds nuw i8, ptr %5, i64 272
  %11 = load ptr, ptr %10, align 8, !tbaa !227
  %12 = icmp eq ptr %11, null
  br i1 %12, label %24, label %13

13:                                               ; preds = %9
  %14 = getelementptr inbounds nuw i8, ptr %7, i64 8
  %15 = tail call i32 @EVP_AEAD_CTX_get_rc4_state(ptr noundef nonnull %14, ptr noundef %1) #21
  %.not = icmp eq i32 %15, 0
  br i1 %.not, label %24, label %16

16:                                               ; preds = %13
  %17 = load ptr, ptr %4, align 8, !tbaa !136
  %18 = getelementptr inbounds nuw i8, ptr %17, i64 272
  %19 = load ptr, ptr %18, align 8, !tbaa !227
  %20 = getelementptr inbounds nuw i8, ptr %19, i64 8
  %21 = tail call i32 @EVP_AEAD_CTX_get_rc4_state(ptr noundef nonnull %20, ptr noundef %2) #21
  %22 = icmp ne i32 %21, 0
  %23 = zext i1 %22 to i32
  br label %24

24:                                               ; preds = %13, %16, %3, %9
  %.0 = phi i32 [ 0, %9 ], [ 0, %3 ], [ 0, %13 ], [ %23, %16 ]
  ret i32 %.0
}